; Function Attrs: mustprogress uwtable
define hidden noundef zeroext i1 @_ZN18OpenImageIO_v2_6_08TGAInput4openERKNSt7__cxx1112basic_stringIcSt11char_traitsIcESaIcEEERNS_9ImageSpecERKS9_(ptr noundef nonnull align 8 dereferenceable(312) %this, ptr noundef nonnull align 8 dereferenceable(32) %name, ptr noundef nonnull align 8 dereferenceable(160) %newspec, ptr noundef nonnull align 8 dereferenceable(160) %config) unnamed_addr #5 align 2 personality ptr @__gxx_personality_v0 {
entry:
  %agg.tmp = alloca %"class.OpenImageIO_v2_6_0::basic_string_view", align 8
  store ptr @.str.17, ptr %agg.tmp, align 8
  %m_len.i = getelementptr inbounds i8, ptr %agg.tmp, i64 8
  store i64 22, ptr %m_len.i, align 8
  %call = call noundef i32 @_ZNK18OpenImageIO_v2_6_09ImageSpec17get_int_attributeENS_17basic_string_viewIcSt11char_traitsIcEEEi(ptr noundef nonnull align 8 dereferenceable(160) %config, ptr noundef nonnull %agg.tmp, i32 noundef 0)
  %cmp = icmp eq i32 %call, 1
  br i1 %cmp, label %if.then, label %if.end

if.then:                                          ; preds = %entry
  %m_keep_unassociated_alpha = getelementptr inbounds i8, ptr %this, i64 296
  store i8 1, ptr %m_keep_unassociated_alpha, align 8
  br label %if.end

if.end:                                           ; preds = %if.then, %entry
  call void @_ZN18OpenImageIO_v2_6_010ImageInput28ioproxy_retrieve_from_configERKNS_9ImageSpecE(ptr noundef nonnull align 8 dereferenceable(184) %this, ptr noundef nonnull align 8 dereferenceable(160) %config)
  %call2 = call noundef zeroext i1 @_ZN18OpenImageIO_v2_6_08TGAInput4openERKNSt7__cxx1112basic_stringIcSt11char_traitsIcESaIcEEERNS_9ImageSpecE(ptr noundef nonnull align 8 dereferenceable(312) %this, ptr noundef nonnull align 8 dereferenceable(32) %name, ptr noundef nonnull align 8 dereferenceable(160) %newspec)
  ret i1 %call2
}